target datalayout = "e-m:e-p270:32:32-p271:32:32-p272:64:64-i64:64-i128:128-f80:128-n8:16:32:64-S128"
target triple = "x86_64-pc-linux-gnu"

%struct.Scl_Pair_t_ = type { i32, i32 }
%struct.Scl_Tree_t_ = type { ptr, ptr, i64, i32, i32, i32, ptr, ptr, i64, ptr }

; Function Attrs: nounwind uwtable
define internal i32 @Scl_LibertyCharIsSpace(i8 noundef signext %0) #0 {
  %2 = alloca i8, align 1
  store i8 %0, ptr %2, align 1
  %3 = load i8, ptr %2, align 1
  %4 = sext i8 %3 to i32
  %5 = icmp eq i32 %4, 32
  br i1 %5, label %22, label %6

6:                                                ; preds = %1
  %7 = load i8, ptr %2, align 1
  %8 = sext i8 %7 to i32
  %9 = icmp eq i32 %8, 9
  br i1 %9, label %22, label %10

10:                                               ; preds = %6
  %11 = load i8, ptr %2, align 1
  %12 = sext i8 %11 to i32
  %13 = icmp eq i32 %12, 13
  br i1 %13, label %22, label %14

14:                                               ; preds = %10
  %15 = load i8, ptr %2, align 1
  %16 = sext i8 %15 to i32
  %17 = icmp eq i32 %16, 10
  br i1 %17, label %22, label %18

18:                                               ; preds = %14
  %19 = load i8, ptr %2, align 1
  %20 = sext i8 %19 to i32
  %21 = icmp eq i32 %20, 92
  br label %22

22:                                               ; preds = %18, %14, %10, %6, %1
  %23 = phi i1 [ true, %14 ], [ true, %10 ], [ true, %6 ], [ true, %1 ], [ %21, %18 ]
  %24 = zext i1 %23 to i32
  ret i32 %24
}

; Function Attrs: nounwind uwtable
define internal i64 @Scl_LibertyUpdateHead(ptr noundef %0, i64 %1) #0 {
  %3 = alloca %struct.Scl_Pair_t_, align 4
  %4 = alloca %struct.Scl_Pair_t_, align 4
  %5 = alloca ptr, align 8
  %6 = alloca %struct.Scl_Pair_t_, align 4
  %7 = alloca ptr, align 8
  %8 = alloca ptr, align 8
  %9 = alloca ptr, align 8
  %10 = alloca ptr, align 8
  %11 = alloca ptr, align 8
  store i64 %1, ptr %4, align 4
  store ptr %0, ptr %5, align 8
  %12 = load ptr, ptr %5, align 8
  %13 = getelementptr inbounds %struct.Scl_Tree_t_, ptr %12, i32 0, i32 1
  %14 = load ptr, ptr %13, align 8
  %15 = getelementptr inbounds %struct.Scl_Pair_t_, ptr %4, i32 0, i32 0
  %16 = load i32, ptr %15, align 4
  %17 = sext i32 %16 to i64
  %18 = getelementptr inbounds i8, ptr %14, i64 %17
  store ptr %18, ptr %7, align 8
  %19 = load ptr, ptr %5, align 8
  %20 = getelementptr inbounds %struct.Scl_Tree_t_, ptr %19, i32 0, i32 1
  %21 = load ptr, ptr %20, align 8
  %22 = getelementptr inbounds %struct.Scl_Pair_t_, ptr %4, i32 0, i32 1
  %23 = load i32, ptr %22, align 4
  %24 = sext i32 %23 to i64
  %25 = getelementptr inbounds i8, ptr %21, i64 %24
  store ptr %25, ptr %8, align 8
  store ptr null, ptr %9, align 8
  store ptr null, ptr %10, align 8
  %26 = load ptr, ptr %7, align 8
  store ptr %26, ptr %11, align 8
  br label %27

27:                                               ; preds = %55, %2
  %28 = load ptr, ptr %11, align 8
  %29 = load ptr, ptr %8, align 8
  %30 = icmp ult ptr %28, %29
  br i1 %30, label %31, label %58

31:                                               ; preds = %27
  %32 = load ptr, ptr %11, align 8
  %33 = load i8, ptr %32, align 1
  %34 = sext i8 %33 to i32
  %35 = icmp eq i32 %34, 10
  br i1 %35, label %36, label %41

36:                                               ; preds = %31
  %37 = load ptr, ptr %5, align 8
  %38 = getelementptr inbounds %struct.Scl_Tree_t_, ptr %37, i32 0, i32 3
  %39 = load i32, ptr %38, align 8
  %40 = add nsw i32 %39, 1
  store i32 %40, ptr %38, align 8
  br label %55

41:                                               ; preds = %31
  %42 = load ptr, ptr %11, align 8
  %43 = load i8, ptr %42, align 1
  %44 = call i32 @Scl_LibertyCharIsSpace(i8 noundef signext %43)
  %45 = icmp ne i32 %44, 0
  br i1 %45, label %46, label %47

46:                                               ; preds = %41
  br label %55

47:                                               ; preds = %41
  br label %48

48:                                               ; preds = %47
  %49 = load ptr, ptr %11, align 8
  store ptr %49, ptr %10, align 8
  %50 = load ptr, ptr %9, align 8
  %51 = icmp eq ptr %50, null
  br i1 %51, label %52, label %54

52:                                               ; preds = %48
  %53 = load ptr, ptr %11, align 8
  store ptr %53, ptr %9, align 8
  br label %54

54:                                               ; preds = %52, %48
  br label %55

55:                                               ; preds = %54, %46, %36
  %56 = load ptr, ptr %11, align 8
  %57 = getelementptr inbounds i8, ptr %56, i32 1
  store ptr %57, ptr %11, align 8
  br label %27, !llvm.loop !19

58:                                               ; preds = %27
  %59 = load ptr, ptr %9, align 8
  %60 = icmp eq ptr %59, null
  br i1 %60, label %64, label %61

61:                                               ; preds = %58
  %62 = load ptr, ptr %10, align 8
  %63 = icmp eq ptr %62, null
  br i1 %63, label %64, label %65

64:                                               ; preds = %61, %58
  call void @llvm.memcpy.p0.p0.i64(ptr align 4 %3, ptr align 4 %4, i64 8, i1 false)
  br label %85

65:                                               ; preds = %61
  %66 = load ptr, ptr %9, align 8
  %67 = load ptr, ptr %5, align 8
  %68 = getelementptr inbounds %struct.Scl_Tree_t_, ptr %67, i32 0, i32 1
  %69 = load ptr, ptr %68, align 8
  %70 = ptrtoint ptr %66 to i64
  %71 = ptrtoint ptr %69 to i64
  %72 = sub i64 %70, %71
  %73 = trunc i64 %72 to i32
  %74 = getelementptr inbounds %struct.Scl_Pair_t_, ptr %6, i32 0, i32 0
  store i32 %73, ptr %74, align 4
  %75 = load ptr, ptr %10, align 8
  %76 = load ptr, ptr %5, align 8
  %77 = getelementptr inbounds %struct.Scl_Tree_t_, ptr %76, i32 0, i32 1
  %78 = load ptr, ptr %77, align 8
  %79 = ptrtoint ptr %75 to i64
  %80 = ptrtoint ptr %78 to i64
  %81 = sub i64 %79, %80
  %82 = add nsw i64 %81, 1
  %83 = trunc i64 %82 to i32
  %84 = getelementptr inbounds %struct.Scl_Pair_t_, ptr %6, i32 0, i32 1
  store i32 %83, ptr %84, align 4
  call void @llvm.memcpy.p0.p0.i64(ptr align 4 %3, ptr align 4 %6, i64 8, i1 false)
  br label %85

85:                                               ; preds = %65, %64
  %86 = load i64, ptr %3, align 4
  ret i64 %86
}