; Function Attrs: nofree norecurse nosync nounwind memory(read, argmem: readwrite, inaccessiblemem: none) uwtable
define internal fastcc i64 @Scl_LibertyUpdateHead(ptr noundef captures(none) %0, i64 %1) unnamed_addr #7 {
  %3 = getelementptr inbounds nuw i8, ptr %0, i64 8
  %4 = load ptr, ptr %3, align 8
  %sext = shl i64 %1, 32
  %5 = ashr exact i64 %sext, 32
  %6 = ashr i64 %1, 32
  %7 = getelementptr inbounds i8, ptr %4, i64 %6
  %8 = icmp slt i64 %5, %6
  br i1 %8, label %.lr.ph, label %._crit_edge

.lr.ph:                                           ; preds = %2
  %9 = getelementptr inbounds i8, ptr %4, i64 %5
  %10 = getelementptr inbounds nuw i8, ptr %0, i64 24
  br label %11

11:                                               ; preds = %.lr.ph, %Scl_LibertyCharIsSpace.exit.thread
  %.029 = phi ptr [ %9, %.lr.ph ], [ %18, %Scl_LibertyCharIsSpace.exit.thread ]
  %.02228 = phi ptr [ null, %.lr.ph ], [ %.1, %Scl_LibertyCharIsSpace.exit.thread ]
  %.02327 = phi ptr [ null, %.lr.ph ], [ %.124, %Scl_LibertyCharIsSpace.exit.thread ]
  %12 = load i8, ptr %.029, align 1
  switch i8 %12, label %16 [
    i8 10, label %13
    i8 32, label %Scl_LibertyCharIsSpace.exit.thread
    i8 13, label %Scl_LibertyCharIsSpace.exit.thread
    i8 9, label %Scl_LibertyCharIsSpace.exit.thread
    i8 92, label %Scl_LibertyCharIsSpace.exit.thread
  ]

13:                                               ; preds = %11
  %14 = load i32, ptr %10, align 8
  %15 = add nsw i32 %14, 1
  store i32 %15, ptr %10, align 8
  br label %Scl_LibertyCharIsSpace.exit.thread

16:                                               ; preds = %11
  %17 = icmp eq ptr %.02327, null
  %spec.select = select i1 %17, ptr %.029, ptr %.02327
  br label %Scl_LibertyCharIsSpace.exit.thread

Scl_LibertyCharIsSpace.exit.thread:               ; preds = %11, %11, %11, %11, %16, %13
  %.124 = phi ptr [ %.02327, %13 ], [ %spec.select, %16 ], [ %.02327, %11 ], [ %.02327, %11 ], [ %.02327, %11 ], [ %.02327, %11 ]
  %.1 = phi ptr [ %.02228, %13 ], [ %.029, %16 ], [ %.02228, %11 ], [ %.02228, %11 ], [ %.02228, %11 ], [ %.02228, %11 ]
  %18 = getelementptr inbounds nuw i8, ptr %.029, i64 1
  %19 = icmp ult ptr %18, %7
  br i1 %19, label %11, label %._crit_edge, !llvm.loop !18

._crit_edge:                                      ; preds = %Scl_LibertyCharIsSpace.exit.thread, %2
  %.023.lcssa = phi ptr [ null, %2 ], [ %.124, %Scl_LibertyCharIsSpace.exit.thread ]
  %.022.lcssa = phi ptr [ null, %2 ], [ %.1, %Scl_LibertyCharIsSpace.exit.thread ]
  %.sroa.3.0.extract.shift = lshr i64 %1, 32
  %20 = icmp eq ptr %.023.lcssa, null
  %21 = icmp eq ptr %.022.lcssa, null
  %or.cond = select i1 %20, i1 true, i1 %21
  %22 = ptrtoint ptr %.023.lcssa to i64
  %23 = ptrtoint ptr %4 to i64
  %24 = sub i64 %22, %23
  %25 = ptrtoint ptr %.022.lcssa to i64
  %reass.sub = sub i64 %25, %23
  %26 = add i64 %reass.sub, 1
  %27 = and i64 %26, 4294967295
  %.sroa.020.0.in = select i1 %or.cond, i64 %1, i64 %24
  %.sroa.321.0 = select i1 %or.cond, i64 %.sroa.3.0.extract.shift, i64 %27
  %.sroa.321.0.insert.shift = shl nuw i64 %.sroa.321.0, 32
  %.sroa.020.0.insert.ext = and i64 %.sroa.020.0.in, 4294967295
  %.sroa.020.0.insert.insert = or disjoint i64 %.sroa.321.0.insert.shift, %.sroa.020.0.insert.ext
  ret i64 %.sroa.020.0.insert.insert
}